; Function Attrs: mustprogress uwtable
define internal void @_ZN8facebook6hermes12_GLOBAL__N_115TimedHostObject16getPropertyNamesERNS_3jsi7RuntimeE(ptr noalias sret(%"class.std::vector") align 8 %agg.result, ptr nocapture noundef nonnull readonly align 8 dereferenceable(40) %this, ptr nocapture nonnull readnone align 8 %rt) unnamed_addr #0 align 2 personality ptr @__gxx_personality_v0 {
entry:
  %timer = alloca %"class.facebook::hermes::(anonymous namespace)::RuntimeStats::RAIITimer", align 8
  %rts_ = getelementptr inbounds i8, ptr %this, i64 32
  %0 = load ptr, ptr %rts_, align 8
  tail call void @llvm.experimental.noalias.scope.decl(metadata !166)
  %runtimeStats_.i.i = getelementptr inbounds i8, ptr %timer, i64 8
  store ptr %0, ptr %runtimeStats_.i.i, align 8, !alias.scope !166
  %stat_.i.i = getelementptr inbounds i8, ptr %timer, i64 16
  store ptr %0, ptr %stat_.i.i, align 8, !alias.scope !166
  %parent_.i.i = getelementptr inbounds i8, ptr %timer, i64 24
  %timerStack_.i.i = getelementptr inbounds i8, ptr %0, i64 72
  %1 = load ptr, ptr %timerStack_.i.i, align 8, !noalias !166
  store ptr %1, ptr %parent_.i.i, align 8, !alias.scope !166
  %wallTimeStart_.i.i = getelementptr inbounds i8, ptr %timer, i64 32
  %call.i.i = tail call i64 @_ZNSt6chrono3_V212steady_clock3nowEv() #21, !noalias !166
  store i64 %call.i.i, ptr %wallTimeStart_.i.i, align 8, !alias.scope !166
  %cpuTimeStart_.i.i = getelementptr inbounds i8, ptr %timer, i64 40
  %call3.i.i = tail call i64 @_ZN6hermes8oscompat15thread_cpu_timeEv(), !noalias !166
  store i64 %call3.i.i, ptr %cpuTimeStart_.i.i, align 8, !alias.scope !166
  store ptr %timer, ptr %timerStack_.i.i, align 8, !noalias !166
  %count.i.i = getelementptr inbounds i8, ptr %0, i64 16
  %2 = load i64, ptr %count.i.i, align 8, !noalias !166
  %add.i.i = add i64 %2, 1
  store i64 %add.i.i, ptr %count.i.i, align 8, !noalias !166
  %tobool.not.i.i = icmp eq ptr %1, null
  br i1 %tobool.not.i.i, label %if.then.i.i, label %_ZN8facebook6hermes12_GLOBAL__N_112RuntimeStats13outgoingTimerEPKc.exit

if.then.i.i:                                      ; preds = %entry
  %count9.i.i = getelementptr inbounds i8, ptr %0, i64 64
  %3 = load i64, ptr %count9.i.i, align 8, !noalias !166
  %add10.i.i = add i64 %3, 1
  store i64 %add10.i.i, ptr %count9.i.i, align 8, !noalias !166
  br label %_ZN8facebook6hermes12_GLOBAL__N_112RuntimeStats13outgoingTimerEPKc.exit

_ZN8facebook6hermes12_GLOBAL__N_112RuntimeStats13outgoingTimerEPKc.exit: ; preds = %entry, %if.then.i.i
  %plainHO_.i = getelementptr inbounds i8, ptr %this, i64 16
  %4 = load ptr, ptr %plainHO_.i, align 8, !noalias !169
  %drt_.i.i = getelementptr inbounds i8, ptr %this, i64 8
  %5 = load ptr, ptr %drt_.i.i, align 8, !noalias !169
  %vtable.i = load ptr, ptr %4, align 8, !noalias !169
  %vfn.i = getelementptr inbounds i8, ptr %vtable.i, i64 32
  %6 = load ptr, ptr %vfn.i, align 8, !noalias !169
  invoke void %6(ptr sret(%"class.std::vector") align 8 %agg.result, ptr noundef nonnull align 8 dereferenceable(8) %4, ptr noundef nonnull align 8 dereferenceable(8) %5)
          to label %invoke.cont unwind label %lpad

invoke.cont:                                      ; preds = %_ZN8facebook6hermes12_GLOBAL__N_112RuntimeStats13outgoingTimerEPKc.exit
  %call.i1.i = invoke i64 @_ZN6hermes8oscompat15thread_cpu_timeEv()
          to label %call.i.noexc.i unwind label %terminate.lpad.i

call.i.noexc.i:                                   ; preds = %invoke.cont
  %call2.i.i = call i64 @_ZNSt6chrono3_V212steady_clock3nowEv() #21
  %7 = load <2 x i64>, ptr %wallTimeStart_.i.i, align 8
  %8 = insertelement <2 x i64> poison, i64 %call2.i.i, i64 0
  %9 = insertelement <2 x i64> %8, i64 %call.i1.i, i64 1
  %10 = sub nsw <2 x i64> %9, %7
  %11 = sitofp <2 x i64> %10 to <2 x double>
  %12 = fdiv <2 x double> %11, <double 1.000000e+09, double 1.000000e+06>
  %13 = load ptr, ptr %stat_.i.i, align 8
  %14 = load <2 x double>, ptr %13, align 8
  %15 = fadd <2 x double> %12, %14
  store <2 x double> %15, ptr %13, align 8
  %16 = load ptr, ptr %parent_.i.i, align 8
  %tobool.not.i.i5 = icmp eq ptr %16, null
  %.pre = load ptr, ptr %runtimeStats_.i.i, align 8
  br i1 %tobool.not.i.i5, label %if.then.i.i6, label %_ZN8facebook6hermes12_GLOBAL__N_112RuntimeStats9RAIITimerD2Ev.exit

if.then.i.i6:                                     ; preds = %call.i.noexc.i
  %total_.i.i = getelementptr inbounds i8, ptr %.pre, i64 48
  %17 = load <2 x double>, ptr %total_.i.i, align 8
  %18 = fadd <2 x double> %12, %17
  store <2 x double> %18, ptr %total_.i.i, align 8
  br label %_ZN8facebook6hermes12_GLOBAL__N_112RuntimeStats9RAIITimerD2Ev.exit

terminate.lpad.i:                                 ; preds = %invoke.cont
  %19 = landingpad { ptr, i32 }
          catch ptr null
  %20 = extractvalue { ptr, i32 } %19, 0
  call void @__clang_call_terminate(ptr %20) #20
  unreachable

_ZN8facebook6hermes12_GLOBAL__N_112RuntimeStats9RAIITimerD2Ev.exit: ; preds = %call.i.noexc.i, %if.then.i.i6
  %timerStack_.i = getelementptr inbounds i8, ptr %.pre, i64 72
  store ptr %16, ptr %timerStack_.i, align 8
  ret void

lpad:                                             ; preds = %_ZN8facebook6hermes12_GLOBAL__N_112RuntimeStats13outgoingTimerEPKc.exit
  %21 = landingpad { ptr, i32 }
          cleanup
  call fastcc void @_ZN8facebook6hermes12_GLOBAL__N_112RuntimeStats9RAIITimerD2Ev(ptr noundef nonnull align 8 dereferenceable(48) %timer) #21
  resume { ptr, i32 } %21
}